target datalayout = "e-m:e-p270:32:32-p271:32:32-p272:64:64-i64:64-i128:128-f80:128-n8:16:32:64-S128"
target triple = "x86_64-pc-linux-gnu"

@.str.6 = private unnamed_addr constant [6 x i8] c"%.17g\00", align 1
@.str.59 = private unnamed_addr constant [3 x i8] c"=\22\00", align 1

; Function Attrs: inlinehint mustprogress uwtable
define linkonce_odr hidden void @_ZN8tinyxml210XMLPrinter5WriteEPKc(ptr noundef nonnull align 8 dereferenceable(312) %0, ptr noundef %1) #11 comdat align 2 {
  %3 = alloca ptr, align 8
  %4 = alloca ptr, align 8
  store ptr %0, ptr %3, align 8, !tbaa !194
  store ptr %1, ptr %4, align 8, !tbaa !14
  %5 = load ptr, ptr %3, align 8
  %6 = load ptr, ptr %4, align 8, !tbaa !14
  %7 = load ptr, ptr %4, align 8, !tbaa !14
  %8 = call i64 @strlen(ptr noundef %7) #19
  %9 = load ptr, ptr %5, align 8, !tbaa !91
  %10 = getelementptr inbounds ptr, ptr %9, i64 14
  %11 = load ptr, ptr %10, align 8
  call void %11(ptr noundef nonnull align 8 dereferenceable(312) %5, ptr noundef %6, i64 noundef %8)
  ret void
}

; Function Attrs: mustprogress uwtable
define void @_ZN8tinyxml210XMLPrinter13PushAttributeEPKcS2_(ptr noundef nonnull align 8 dereferenceable(312) %0, ptr noundef %1, ptr noundef %2) #2 align 2 {
  %4 = alloca ptr, align 8
  %5 = alloca ptr, align 8
  %6 = alloca ptr, align 8
  store ptr %0, ptr %4, align 8, !tbaa !194
  store ptr %1, ptr %5, align 8, !tbaa !14
  store ptr %2, ptr %6, align 8, !tbaa !14
  %7 = load ptr, ptr %4, align 8
  %8 = load ptr, ptr %7, align 8, !tbaa !91
  %9 = getelementptr inbounds ptr, ptr %8, i64 15
  %10 = load ptr, ptr %9, align 8
  call void %10(ptr noundef nonnull align 8 dereferenceable(312) %7, i8 noundef signext 32)
  %11 = load ptr, ptr %5, align 8, !tbaa !14
  call void @_ZN8tinyxml210XMLPrinter5WriteEPKc(ptr noundef nonnull align 8 dereferenceable(312) %7, ptr noundef %11)
  call void @_ZN8tinyxml210XMLPrinter5WriteEPKc(ptr noundef nonnull align 8 dereferenceable(312) %7, ptr noundef @.str.59)
  %12 = load ptr, ptr %6, align 8, !tbaa !14
  call void @_ZN8tinyxml210XMLPrinter11PrintStringEPKcb(ptr noundef nonnull align 8 dereferenceable(312) %7, ptr noundef %12, i1 noundef zeroext false)
  %13 = load ptr, ptr %7, align 8, !tbaa !91
  %14 = getelementptr inbounds ptr, ptr %13, i64 15
  %15 = load ptr, ptr %14, align 8
  call void %15(ptr noundef nonnull align 8 dereferenceable(312) %7, i8 noundef signext 34)
  ret void
}

; Function Attrs: mustprogress nounwind uwtable
define void @_ZN8tinyxml27XMLUtil5ToStrEdPci(double noundef %0, ptr noundef %1, i32 noundef %2) #0 align 2 {
  %4 = alloca double, align 8
  %5 = alloca ptr, align 8
  %6 = alloca i32, align 4
  store double %0, ptr %4, align 8, !tbaa !44
  store ptr %1, ptr %5, align 8, !tbaa !14
  store i32 %2, ptr %6, align 4, !tbaa !15
  %7 = load ptr, ptr %5, align 8, !tbaa !14
  %8 = load i32, ptr %6, align 4, !tbaa !15
  %9 = sext i32 %8 to i64
  %10 = load double, ptr %4, align 8, !tbaa !44
  %11 = call i32 (ptr, i64, ptr, ...) @snprintf(ptr noundef %7, i64 noundef %9, ptr noundef @.str.6, double noundef %10) #18
  ret void
}

; Function Attrs: mustprogress uwtable
define void @_ZN8tinyxml210XMLPrinter13PushAttributeEPKcd(ptr noundef nonnull align 8 dereferenceable(312) %0, ptr noundef %1, double noundef %2) #2 align 2 {
  %4 = alloca ptr, align 8
  %5 = alloca ptr, align 8
  %6 = alloca double, align 8
  %7 = alloca [200 x i8], align 16
  store ptr %0, ptr %4, align 8, !tbaa !194
  store ptr %1, ptr %5, align 8, !tbaa !14
  store double %2, ptr %6, align 8, !tbaa !44
  %8 = load ptr, ptr %4, align 8
  call void @llvm.lifetime.start.p0(i64 200, ptr %7) #18
  %9 = load double, ptr %6, align 8, !tbaa !44
  %10 = getelementptr inbounds [200 x i8], ptr %7, i64 0, i64 0
  call void @_ZN8tinyxml27XMLUtil5ToStrEdPci(double noundef %9, ptr noundef %10, i32 noundef 200)
  %11 = load ptr, ptr %5, align 8, !tbaa !14
  %12 = getelementptr inbounds [200 x i8], ptr %7, i64 0, i64 0
  call void @_ZN8tinyxml210XMLPrinter13PushAttributeEPKcS2_(ptr noundef nonnull align 8 dereferenceable(312) %8, ptr noundef %11, ptr noundef %12)
  call void @llvm.lifetime.end.p0(i64 200, ptr %7) #18
  ret void
}