; Function Attrs: mustprogress uwtable
define void @_ZN8tinyxml210XMLPrinter13PushAttributeEPKcd(ptr noundef nonnull align 8 dereferenceable(312) %0, ptr noundef %1, double noundef %2) local_unnamed_addr #4 align 2 {
  %4 = alloca [200 x i8], align 16
  call void @llvm.lifetime.start.p0(i64 200, ptr nonnull %4) #31
  %5 = call i32 (ptr, i64, ptr, ...) @snprintf(ptr noundef nonnull dereferenceable(1) %4, i64 noundef 200, ptr noundef nonnull @.str.6, double noundef %2) #31
  %6 = load ptr, ptr %0, align 8, !tbaa !63
  %7 = getelementptr inbounds nuw i8, ptr %6, i64 120
  %8 = load ptr, ptr %7, align 8
  tail call void %8(ptr noundef nonnull align 8 dereferenceable(312) %0, i8 noundef signext 32)
  %9 = tail call i64 @strlen(ptr noundef nonnull dereferenceable(1) %1) #33
  %10 = load ptr, ptr %0, align 8, !tbaa !63
  %11 = getelementptr inbounds nuw i8, ptr %10, i64 112
  %12 = load ptr, ptr %11, align 8
  tail call void %12(ptr noundef nonnull align 8 dereferenceable(312) %0, ptr noundef nonnull %1, i64 noundef %9)
  %13 = load ptr, ptr %0, align 8, !tbaa !63
  %14 = getelementptr inbounds nuw i8, ptr %13, i64 112
  %15 = load ptr, ptr %14, align 8
  tail call void %15(ptr noundef nonnull align 8 dereferenceable(312) %0, ptr noundef nonnull @.str.59, i64 noundef 2)
  call void @_ZN8tinyxml210XMLPrinter11PrintStringEPKcb(ptr noundef nonnull align 8 dereferenceable(312) %0, ptr noundef nonnull %4, i1 noundef zeroext false)
  %16 = load ptr, ptr %0, align 8, !tbaa !63
  %17 = getelementptr inbounds nuw i8, ptr %16, i64 120
  %18 = load ptr, ptr %17, align 8
  call void %18(ptr noundef nonnull align 8 dereferenceable(312) %0, i8 noundef signext 34)
  call void @llvm.lifetime.end.p0(i64 200, ptr nonnull %4) #31
  ret void
}